(dp1
S'output'
p2
S"<type 'exceptions.NameError'> global name 'OrderedDict' is not defined"
p3
sS'layer'
p4
S'/Users/harold/dev/astro/wsgi/web2py/applications/sr_astronomy/controllers/api.py'
p5
sS'code'
p6
S'import ephem\nimport dateutil.parser\nfrom datetime import date, datetime\n\nexec(\'from applications.%s.modules.astro import Astro\' % request.application)\n\ndef index():\n    redirect(\'/\')\n\n\ndef lookup():\n    # astronomy api\n    if request.vars[\'lat\'] and request.vars[\'lng\'] and request.vars[\'dateTime\']:\n        try:\n            astro = Astro(request.vars[\'lat\'], request.vars[\'lng\'], request.vars[\'dateTime\'])\n            astro.observe()\n        except Exception, e:\n            result_message = \'error: %s\' % e\n            return dict(message=result_message)\n        else:\n            result_message = \'ok\'\n            return OrderedDict(message=result_message, \n                previous_sunrise=astro.observations["previous_sunrise"],\n                next_sunrise=astro.observations["next_sunrise"],\n                previous_sunset=astro.observations["previous_sunset"],\n                next_sunset=astro.observations["next_sunset"],\n                civil_previous_rising=astro.observations["civil_previous_rising"],\n                civil_next_rising=astro.observations["civil_next_rising"],\n                civil_previous_setting=astro.observations["civil_previous_setting"],\n                civil_next_setting=astro.observations["civil_next_setting"],\n                astronomical_previous_rising=astro.observations["astronomical_previous_rising"],\n                astronomical_next_rising=astro.observations["astronomical_next_rising"],\n                astronomical_previous_setting=astro.observations["astronomical_previous_setting"],\n                astronomical_next_setting=astro.observations["astronomical_next_setting"],\n                previous_moonrise=astro.observations["previous_moonrise"],\n                next_moonrise=astro.observations["next_moonrise"],\n                previous_moonset=astro.observations["previous_moonset"],\n                next_moonset=astro.observations["next_moonset"],\n                previous_moon_transit=astro.observations["previous_moon_transit"],\n                next_moon_transit=astro.observations["next_moon_transit"],\n                moon_altitude=astro.observations["moon_altitude"],\n                moon_azimuth=astro.observations["moon_azimuth"],\n                moon_phase=astro.observations["moon_phase"],\n                moon_magnitude=astro.observations["moon_magnitude"])\n    else:\n        return dict(message="error - missing required parameters.")\n\n\n\nresponse._vars=response._caller(lookup)\n'
p7
sS'snapshot'
p8
(dp9
S'exception'
p10
(dp11
S'__hash__'
p12
S"<method-wrapper '__hash__' of exceptions.NameError object>"
p13
sS'__setattr__'
p14
S"<method-wrapper '__setattr__' of exceptions.NameError object>"
p15
sS'__reduce_ex__'
p16
S'<built-in method __reduce_ex__ of exceptions.NameError object>'
p17
sS'__getslice__'
p18
S"<method-wrapper '__getslice__' of exceptions.NameError object>"
p19
sS'__getitem__'
p20
S"<method-wrapper '__getitem__' of exceptions.NameError object>"
p21
sS'__setstate__'
p22
S'<built-in method __setstate__ of exceptions.NameError object>'
p23
sS'args'
p24
S'("global name \'OrderedDict\' is not defined",)'
p25
sS'__reduce__'
p26
S'<built-in method __reduce__ of exceptions.NameError object>'
p27
sS'__str__'
p28
S"<method-wrapper '__str__' of exceptions.NameError object>"
p29
sS'__format__'
p30
S'<built-in method __format__ of exceptions.NameError object>'
p31
sS'__getattribute__'
p32
S"<method-wrapper '__getattribute__' of exceptions.NameError object>"
p33
sS'__class__'
p34
S"<type 'exceptions.NameError'>"
p35
sS'__unicode__'
p36
S'<built-in method __unicode__ of exceptions.NameError object>'
p37
sS'__delattr__'
p38
S"<method-wrapper '__delattr__' of exceptions.NameError object>"
p39
sS'__subclasshook__'
p40
S'<built-in method __subclasshook__ of type object>'
p41
sS'__repr__'
p42
S"<method-wrapper '__repr__' of exceptions.NameError object>"
p43
sS'__dict__'
p44
S'{}'
p45
sS'__sizeof__'
p46
S'<built-in method __sizeof__ of exceptions.NameError object>'
p47
sS'__doc__'
p48
S"'Name not found globally.'"
p49
sS'__init__'
p50
S"<method-wrapper '__init__' of exceptions.NameError object>"
p51
sS'__new__'
p52
S'<built-in method __new__ of type object>'
p53
ssS'evalue'
p54
S"global name 'OrderedDict' is not defined"
p55
sS'request'
p56
cgluon.html
XML_unpickle
p57
(S's\x00q\x00\x00<div><table><tr><td style="font-weight:bold;vertical-align:top">ajax</td><td valign="top">:</td><td><div>False</div></td></tr><tr><td style="font-weight:bold;vertical-align:top">application</td><td valign="top">:</td><td><div>sr_astronomy</div></td></tr><tr><td style="font-weight:bold;vertical-align:top">args</td><td valign="top">:</td><td><div><table></table></div></td></tr><tr><td style="font-weight:bold;vertical-align:top">body</td><td valign="top">:</td><td><div>&lt;cStringIO.StringO object at 0x10947f880&gt;</div></td></tr><tr><td style="font-weight:bold;vertical-align:top">cid</td><td valign="top">:</td><td><div>None</div></td></tr><tr><td style="font-weight:bold;vertical-align:top">client</td><td valign="top">:</td><td><div>127.0.0.1</div></td></tr><tr><td style="font-weight:bold;vertical-align:top">controller</td><td valign="top">:</td><td><div>api</div></td></tr><tr><td style="font-weight:bold;vertical-align:top">cookies</td><td valign="top">:</td><td><div><table><tr><td style="font-weight:bold;vertical-align:top">session_data_examples</td><td valign="top">:</td><td><div>067737a87fff3d0a96269c51174607d7:zWFMmNXgDjuH3FUWpiYVPlXNsg7M4kys7vSaKG5tSxQ1__prhJrJjZzoocbG58Zbfc6BzsW5NoA1oqx1w6ErrA3oEcJlaNcdPREt59v3BaMpXId2LXtoH5H_UQyYMQAA6CUHLbCHLgq7ZAzzeWtGVA3r5ME6-esOUwXid6uU7FTKjMCA3_gMrbk4bu5Ofw5jUO9WrJQX43WZXG1k5rZMwc9kivPXxkPfZNBFS93Hl-N5hkh6cTcLvtcncz-AZag-T0X1nEBAXA0okeBjfVPT4ssq80RMCoDqDLv7R_T67o8KL40Dj9Bhg5Gyo_pKd8CedNKlXxq4EbctR6to5-aOdm9m-dpKbNAUAD7iRulD8q7vMCt34sFN5rIIYwVoEGdLc0yitqPvUJuW2eQ_nzAcJA==<table><tr><td style="font-weight:bold;vertical-align:top">comment</td><td valign="top">:</td><td><div></div></td></tr><tr><td style="font-weight:bold;vertical-align:top">domain</td><td valign="top">:</td><td><div></div></td></tr><tr><td style="font-weight:bold;vertical-align:top">expires</td><td valign="top">:</td><td><div></div></td></tr><tr><td style="font-weight:bold;vertical-align:top">httponly</td><td valign="top">:</td><td><div></div></td></tr><tr><td style="font-weight:bold;vertical-align:top">max-age</td><td valign="top">:</td><td><div></div></td></tr><tr><td style="font-weight:bold;vertical-align:top">path</td><td valign="top">:</td><td><div></div></td></tr><tr><td style="font-weight:bold;vertical-align:top">secure</td><td valign="top">:</td><td><div></div></td></tr><tr><td style="font-weight:bold;vertical-align:top">version</td><td valign="top">:</td><td><div></div></td></tr></table></div></td></tr><tr><td style="font-weight:bold;vertical-align:top">session_id_admin</td><td valign="top">:</td><td><div>127.0.0.1-15417150-6826-4858-b60f-dd9de31eb352<table><tr><td style="font-weight:bold;vertical-align:top">comment</td><td valign="top">:</td><td><div></div></td></tr><tr><td style="font-weight:bold;vertical-align:top">domain</td><td valign="top">:</td><td><div></div></td></tr><tr><td style="font-weight:bold;vertical-align:top">expires</td><td valign="top">:</td><td><div></div></td></tr><tr><td style="font-weight:bold;vertical-align:top">httponly</td><td valign="top">:</td><td><div></div></td></tr><tr><td style="font-weight:bold;vertical-align:top">max-age</td><td valign="top">:</td><td><div></div></td></tr><tr><td style="font-weight:bold;vertical-align:top">path</td><td valign="top">:</td><td><div></div></td></tr><tr><td style="font-weight:bold;vertical-align:top">secure</td><td valign="top">:</td><td><div></div></td></tr><tr><td style="font-weight:bold;vertical-align:top">version</td><td valign="top">:</td><td><div></div></td></tr></table></div></td></tr><tr><td style="font-weight:bold;vertical-align:top">session_id_myfirstapp</td><td valign="top">:</td><td><div>127.0.0.1-736f06b5-225a-4998-96cc-e78480634843<table><tr><td style="font-weight:bold;vertical-align:top">comment</td><td valign="top">:</td><td><div></div></td></tr><tr><td style="font-weight:bold;vertical-align:top">domain</td><td valign="top">:</td><td><div></div></td></tr><tr><td style="font-weight:bold;vertical-align:top">expires</td><td valign="top">:</td><td><div></div></td></tr><tr><td style="font-weight:bold;vertical-align:top">httponly</td><td valign="top">:</td><td><div></div></td></tr><tr><td style="font-weight:bold;vertical-align:top">max-age</td><td valign="top">:</td><td><div></div></td></tr><tr><td style="font-weight:bold;vertical-align:top">path</td><td valign="top">:</td><td><div></div></td></tr><tr><td style="font-weight:bold;vertical-align:top">secure</td><td valign="top">:</td><td><div></div></td></tr><tr><td style="font-weight:bold;vertical-align:top">version</td><td valign="top">:</td><td><div></div></td></tr></table></div></td></tr><tr><td style="font-weight:bold;vertical-align:top">session_id_sr_astronomy</td><td valign="top">:</td><td><div>127.0.0.1-213304f1-5b51-4275-a788-db5c1234d192<table><tr><td style="font-weight:bold;vertical-align:top">comment</td><td valign="top">:</td><td><div></div></td></tr><tr><td style="font-weight:bold;vertical-align:top">domain</td><td valign="top">:</td><td><div></div></td></tr><tr><td style="font-weight:bold;vertical-align:top">expires</td><td valign="top">:</td><td><div></div></td></tr><tr><td style="font-weight:bold;vertical-align:top">httponly</td><td valign="top">:</td><td><div></div></td></tr><tr><td style="font-weight:bold;vertical-align:top">max-age</td><td valign="top">:</td><td><div></div></td></tr><tr><td style="font-weight:bold;vertical-align:top">path</td><td valign="top">:</td><td><div></div></td></tr><tr><td style="font-weight:bold;vertical-align:top">secure</td><td valign="top">:</td><td><div></div></td></tr><tr><td style="font-weight:bold;vertical-align:top">version</td><td valign="top">:</td><td><div></div></td></tr></table></div></td></tr><tr><td style="font-weight:bold;vertical-align:top">session_id_welcome</td><td valign="top">:</td><td><div>127.0.0.1-03c9339a-d806-4620-b0de-40c59c12142f<table><tr><td style="font-weight:bold;vertical-align:top">comment</td><td valign="top">:</td><td><div></div></td></tr><tr><td style="font-weight:bold;vertical-align:top">domain</td><td valign="top">:</td><td><div></div></td></tr><tr><td style="font-weight:bold;vertical-align:top">expires</td><td valign="top">:</td><td><div></div></td></tr><tr><td style="font-weight:bold;vertical-align:top">httponly</td><td valign="top">:</td><td><div></div></td></tr><tr><td style="font-weight:bold;vertical-align:top">max-age</td><td valign="top">:</td><td><div></div></td></tr><tr><td style="font-weight:bold;vertical-align:top">path</td><td valign="top">:</td><td><div></div></td></tr><tr><td style="font-weight:bold;vertical-align:top">secure</td><td valign="top">:</td><td><div></div></td></tr><tr><td style="font-weight:bold;vertical-align:top">version</td><td valign="top">:</td><td><div></div></td></tr></table></div></td></tr></table></div></td></tr><tr><td style="font-weight:bold;vertical-align:top">env</td><td valign="top">:</td><td><div><table><tr><td style="font-weight:bold;vertical-align:top">app_folders</td><td valign="top">:</td><td><div>set([&#x27;/Users/harold/dev/astro/wsgi/web2py/applications/sr_astronomy/&#x27;])</div></td></tr><tr><td style="font-weight:bold;vertical-align:top">applications_parent</td><td valign="top">:</td><td><div>/Users/harold/dev/astro/wsgi/web2py</div></td></tr><tr><td style="font-weight:bold;vertical-align:top">cmd_args</td><td valign="top">:</td><td><div><table></table></div></td></tr><tr><td style="font-weight:bold;vertical-align:top">cmd_options</td><td valign="top">:</td><td><div>&lt;Values at 0x1091f2758: {&#x27;verbose&#x27;: False, &#x27;ip&#x27;: &#x27;127.0.0.1&#x27;, &#x27;with_scheduler&#x27;: False, &#x27;ips&#x27;: [&#x27;192.168.2.125&#x27;, &#x27;192.168.2.103&#x27;, &#x27;fe80::223:6cff:fe7e:214c%en1&#x27;, &#x27;fe80::223:32ff:fecb:4bba%en0&#x27;, &#x27;fe80::223:6cff:fe7e:214c%en0&#x27;], &#x27;shutdown_timeout&#x27;: 5, &#x27;taskbar&#x27;: False, &#x27;with_coverage&#x27;: False, &#x27;port&#x27;: 8000, &#x27;maxthreads&#x27;: None, &#x27;softcron&#x27;: False, &#x27;server_name&#x27;: &#x27;Harold-Daniels-MacBook-Pro-5.local&#x27;, &#x27;bpython&#x27;: False, &#x27;nogui&#x27;: False, &#x27;pid_filename&#x27;: &#x27;httpserver.pid&#x27;, &#x27;extcron&#x27;: False, &#x27;runcron&#x27;: False, &#x27;run_system_tests&#x27;: False, &#x27;test&#x27;: None, &#x27;folder&#x27;: &#x27;/Users/harold/dev/astro/wsgi/web2py&#x27;, &#x27;config&#x27;: &#x27;&#x27;, &#x27;minthreads&#x27;: None, &#x27;winservice&#x27;: &#x27;&#x27;, &#x27;shell&#x27;: None, &#x27;run&#x27;: &#x27;&#x27;, &#x27;log_filename&#x27;: &#x27;httpserver.log&#x27;, &#x27;debuglevel&#x27;: 30, &#x27;args&#x27;: [&#x27;&#x27;], &#x27;socket_timeout&#x27;: 5, &#x27;ssl_ca_certificate&#x27;: None, &#x27;scheduler&#x27;: None, &#x27;profiler_filename&#x27;: None, &#x27;ssl_private_key&#x27;: &#x27;&#x27;, &#x27;scheduler_groups&#x27;: None, &#x27;password&#x27;: &#x27;Bobbyman1&#x27;, &#x27;request_queue_size&#x27;: 5, &#x27;ssl_certificate&#x27;: &#x27;&#x27;, &#x27;cronjob&#x27;: False, &#x27;numthreads&#x27;: None, &#x27;quiet&#x27;: False, &#x27;interfaces&#x27;: None, &#x27;import_models&#x27;: False, &#x27;timeout&#x27;: 10, &#x27;plain&#x27;: False, &#x27;nobanner&#x27;: False}&gt;</div></td></tr><tr><td style="font-weight:bold;vertical-align:top">db_sessions</td><td valign="top">:</td><td><div>set([])</div></td></tr><tr><td style="font-weight:bold;vertical-align:top">debugging</td><td valign="top">:</td><td><div>False</div></td></tr><tr><td style="font-weight:bold;vertical-align:top">gluon_parent</td><td valign="top">:</td><td><div>/Users/harold/dev/astro/wsgi/web2py</div></td></tr><tr><td style="font-weight:bold;vertical-align:top">http_accept</td><td valign="top">:</td><td><div>text/html,application/xhtml+xml,application/xml;q=0.9,*/*;q=0.8</div></td></tr><tr><td style="font-weight:bold;vertical-align:top">http_accept_encoding</td><td valign="top">:</td><td><div>gzip, deflate</div></td></tr><tr><td style="font-weight:bold;vertical-align:top">http_accept_language</td><td valign="top">:</td><td><div>en-US,en;q=0.5</div></td></tr><tr><td style="font-weight:bold;vertical-align:top">http_cache_control</td><td valign="top">:</td><td><div>max-age=0</div></td></tr><tr><td style="font-weight:bold;vertical-align:top">http_connection</td><td valign="top">:</td><td><div>keep-alive</div></td></tr><tr><td style="font-weight:bold;vertical-align:top">http_cookie</td><td valign="top">:</td><td><div>__utma=111872281.31957317.1366297790.1366893408.1366895981.5; __utmz=111872281.1366297790.1.1.utmcsr=(direct)|utmccn=(direct)|utmcmd=(none); __gads=ID=f9b7a3017e81eac7:T=1367859534:S=ALNI_MbwwFG9QNk-CCYBlBqIcBP-rbpUpg; __utmc=111872281; _tecfiler-rails_session=BAh7CEkiD3Nlc3Npb25faWQGOgZFRkkiJWY5YTg1ZmZlNjIzOTIwNzJmMmRkYTNmZjQ2ZDg0MTk0BjsAVEkiEF9jc3JmX3Rva2VuBjsARkkiMTJmSEl2TDdrN3N5S210UjFHbC9YRFJ2d05obFZjNU5hOHJIN0JpMW5kVkU9BjsARkkiGXdhcmRlbi51c2VyLnVzZXIua2V5BjsAVFsISSIJVXNlcgY7AEZbBmkGSSIiJDJhJDEwJGtrU3hWSTNKQnFiR2VOemM2S3FUemUGOwBU--9dc66921734c2f129d8ce0b75265ca5b217babb2; _session_id=fc5ed8cf41fb92cafa1b66ca40fed0e3; _tecfiler-ar_session=BAh7CEkiD3Nlc3Npb25faWQGOgZFRkkiJTVlZDNmODE5YTI5YWNkNDhiODM3YTNhZGQ0ODg3Mzk0BjsAVEkiEF9jc3JmX3Rva2VuBjsARkkiMTRtOHREMmswY1ZSTnZwOHRjOFpBR25vNjREYW1IV1ZkSkE3dHBRaXlLeGc9BjsARkkiGXdhcmRlbi51c2VyLnVzZXIua2V5BjsAVFsHWwZpBkkiIiQyYSQxMCQwdlVmS1NPLnhpZjNlM0NJNnFHUTF1BjsAVA%3D%3D--2be47e04964f5793884d30ce16a8be3c73de2ac7; session_id_welcome=127.0.0.1-03c9339a-d806-4620-b0de-40c59c12142f; session_data_examples=&quot;067737a87fff3d0a96269c51174607d7:zWFMmNXgDjuH3FUWpiYVPlXNsg7M4kys7vSaKG5tSxQ1__prhJrJjZzoocbG58Zbfc6BzsW5NoA1oqx1w6ErrA3oEcJlaNcdPREt59v3BaMpXId2LXtoH5H_UQyYMQAA6CUHLbCHLgq7ZAzzeWtGVA3r5ME6-esOUwXid6uU7FTKjMCA3_gMrbk4bu5Ofw5jUO9WrJQX43WZXG1k5rZMwc9kivPXxkPfZNBFS93Hl-N5hkh6cTcLvtcncz-AZag-T0X1nEBAXA0okeBjfVPT4ssq80RMCoDqDLv7R_T67o8KL40Dj9Bhg5Gyo_pKd8CedNKlXxq4EbctR6to5-aOdm9m-dpKbNAUAD7iRulD8q7vMCt34sFN5rIIYwVoEGdLc0yitqPvUJuW2eQ_nzAcJA==&quot;; session_id_admin=127.0.0.1-15417150-6826-4858-b60f-dd9de31eb352; session_id_myfirstapp=127.0.0.1-736f06b5-225a-4998-96cc-e78480634843; session_id_sr_astronomy=127.0.0.1-213304f1-5b51-4275-a788-db5c1234d192</div></td></tr><tr><td style="font-weight:bold;vertical-align:top">http_host</td><td valign="top">:</td><td><div>localhost:8000</div></td></tr><tr><td style="font-weight:bold;vertical-align:top">http_user_agent</td><td valign="top">:</td><td><div>Mozilla/5.0 (Macintosh; Intel Mac OS X 10.8; rv:21.0) Gecko/20100101 Firefox/21.0</div></td></tr><tr><td style="font-weight:bold;vertical-align:top">is_jython</td><td valign="top">:</td><td><div>False</div></td></tr><tr><td style="font-weight:bold;vertical-align:top">is_pypy</td><td valign="top">:</td><td><div>False</div></td></tr><tr><td style="font-weight:bold;vertical-align:top">local_hosts</td><td valign="top">:</td><td><div><table><tr><td><div>Harold-Daniels-MacBook-Pro-5.local</div></td></tr><tr><td><div>::ffff:127.0.0.1</div></td></tr><tr><td><div>::1</div></td></tr><tr><td><div>fe80::223:32ff:fecb:4bba%en1</div></td></tr><tr><td><div>fe80::223:32ff:fecb:4bba%en0</div></td></tr><tr><td><div>192.168.2.103</div></td></tr><tr><td><div>fe80::223:6cff:fe7e:214c%en1</div></td></tr><tr><td><div>fe80::223:6cff:fe7e:214c%en0</div></td></tr><tr><td><div>192.168.2.125</div></td></tr><tr><td><div>127.0.0.1</div></td></tr></table></div></td></tr><tr><td style="font-weight:bold;vertical-align:top">path_info</td><td valign="top">:</td><td><div>/sr_astronomy/api/lookup.xml</div></td></tr><tr><td style="font-weight:bold;vertical-align:top">query_string</td><td valign="top">:</td><td><div>lat=27.955591&amp;lng=-82.24914551&amp;dateTime=2000-03-05T12:00:00Z</div></td></tr><tr><td style="font-weight:bold;vertical-align:top">remote_addr</td><td valign="top">:</td><td><div>127.0.0.1</div></td></tr><tr><td style="font-weight:bold;vertical-align:top">remote_port</td><td valign="top">:</td><td><div>57877</div></td></tr><tr><td style="font-weight:bold;vertical-align:top">request_method</td><td valign="top">:</td><td><div>GET</div></td></tr><tr><td style="font-weight:bold;vertical-align:top">request_uri</td><td valign="top">:</td><td><div>/sr_astronomy/api/lookup.xml?lat=27.955591&amp;lng=-82.24914551&amp;dateTime=2000-03-05T12:00:00Z</div></td></tr><tr><td style="font-weight:bold;vertical-align:top">script_name</td><td valign="top">:</td><td><div></div></td></tr><tr><td style="font-weight:bold;vertical-align:top">server_name</td><td valign="top">:</td><td><div>Harold-Daniels-MacBook-Pro-5.local</div></td></tr><tr><td style="font-weight:bold;vertical-align:top">server_port</td><td valign="top">:</td><td><div>8000</div></td></tr><tr><td style="font-weight:bold;vertical-align:top">server_protocol</td><td valign="top">:</td><td><div>HTTP/1.1</div></td></tr><tr><td style="font-weight:bold;vertical-align:top">server_software</td><td valign="top">:</td><td><div>Rocket 1.2.6</div></td></tr><tr><td style="font-weight:bold;vertical-align:top">web2py_path</td><td valign="top">:</td><td><div>/Users/harold/dev/astro/wsgi/web2py</div></td></tr><tr><td style="font-weight:bold;vertical-align:top">web2py_version</td><td valign="top">:</td><td><div>2.5.1-stable+timestamp.2013.06.06.15.39.19</div></td></tr><tr><td style="font-weight:bold;vertical-align:top">wsgi_errors</td><td valign="top">:</td><td><div>&lt;open file &#x27;&lt;stderr&gt;&#x27;, mode &#x27;w&#x27; at 0x108a4f270&gt;</div></td></tr><tr><td style="font-weight:bold;vertical-align:top">wsgi_file_wrapper</td><td valign="top">:</td><td><div>&lt;class wsgiref.util.FileWrapper at 0x109318ae0&gt;</div></td></tr><tr><td style="font-weight:bold;vertical-align:top">wsgi_input</td><td valign="top">:</td><td><div>&lt;socket._fileobject object at 0x10982b4d0&gt;</div></td></tr><tr><td style="font-weight:bold;vertical-align:top">wsgi_multiprocess</td><td valign="top">:</td><td><div>False</div></td></tr><tr><td style="font-weight:bold;vertical-align:top">wsgi_multithread</td><td valign="top">:</td><td><div>True</div></td></tr><tr><td style="font-weight:bold;vertical-align:top">wsgi_run_once</td><td valign="top">:</td><td><div>False</div></td></tr><tr><td style="font-weight:bold;vertical-align:top">wsgi_url_scheme</td><td valign="top">:</td><td><div>http</div></td></tr><tr><td style="font-weight:bold;vertical-align:top">wsgi_version</td><td valign="top">:</td><td><div><table><tr><td><div>1</div></td></tr><tr><td><div>0</div></td></tr></table></div></td></tr></table></div></td></tr><tr><td style="font-weight:bold;vertical-align:top">extension</td><td valign="top">:</td><td><div>xml</div></td></tr><tr><td style="font-weight:bold;vertical-align:top">folder</td><td valign="top">:</td><td><div>/Users/harold/dev/astro/wsgi/web2py/applications/sr_astronomy/</div></td></tr><tr><td style="font-weight:bold;vertical-align:top">function</td><td valign="top">:</td><td><div>lookup</div></td></tr><tr><td style="font-weight:bold;vertical-align:top">get_vars</td><td valign="top">:</td><td><div><table><tr><td style="font-weight:bold;vertical-align:top">dateTime</td><td valign="top">:</td><td><div>2000-03-05T12:00:00Z</div></td></tr><tr><td style="font-weight:bold;vertical-align:top">lat</td><td valign="top">:</td><td><div>27.955591</div></td></tr><tr><td style="font-weight:bold;vertical-align:top">lng</td><td valign="top">:</td><td><div>-82.24914551</div></td></tr></table></div></td></tr><tr><td style="font-weight:bold;vertical-align:top">global_settings</td><td valign="top">:</td><td><div><table><tr><td style="font-weight:bold;vertical-align:top">app_folders</td><td valign="top">:</td><td><div>set([&#x27;/Users/harold/dev/astro/wsgi/web2py/applications/sr_astronomy/&#x27;])</div></td></tr><tr><td style="font-weight:bold;vertical-align:top">applications_parent</td><td valign="top">:</td><td><div>/Users/harold/dev/astro/wsgi/web2py</div></td></tr><tr><td style="font-weight:bold;vertical-align:top">cmd_args</td><td valign="top">:</td><td><div><table></table></div></td></tr><tr><td style="font-weight:bold;vertical-align:top">cmd_options</td><td valign="top">:</td><td><div>&lt;Values at 0x1091f2758: {&#x27;verbose&#x27;: False, &#x27;ip&#x27;: &#x27;127.0.0.1&#x27;, &#x27;with_scheduler&#x27;: False, &#x27;ips&#x27;: [&#x27;192.168.2.125&#x27;, &#x27;192.168.2.103&#x27;, &#x27;fe80::223:6cff:fe7e:214c%en1&#x27;, &#x27;fe80::223:32ff:fecb:4bba%en0&#x27;, &#x27;fe80::223:6cff:fe7e:214c%en0&#x27;], &#x27;shutdown_timeout&#x27;: 5, &#x27;taskbar&#x27;: False, &#x27;with_coverage&#x27;: False, &#x27;port&#x27;: 8000, &#x27;maxthreads&#x27;: None, &#x27;softcron&#x27;: False, &#x27;server_name&#x27;: &#x27;Harold-Daniels-MacBook-Pro-5.local&#x27;, &#x27;bpython&#x27;: False, &#x27;nogui&#x27;: False, &#x27;pid_filename&#x27;: &#x27;httpserver.pid&#x27;, &#x27;extcron&#x27;: False, &#x27;runcron&#x27;: False, &#x27;run_system_tests&#x27;: False, &#x27;test&#x27;: None, &#x27;folder&#x27;: &#x27;/Users/harold/dev/astro/wsgi/web2py&#x27;, &#x27;config&#x27;: &#x27;&#x27;, &#x27;minthreads&#x27;: None, &#x27;winservice&#x27;: &#x27;&#x27;, &#x27;shell&#x27;: None, &#x27;run&#x27;: &#x27;&#x27;, &#x27;log_filename&#x27;: &#x27;httpserver.log&#x27;, &#x27;debuglevel&#x27;: 30, &#x27;args&#x27;: [&#x27;&#x27;], &#x27;socket_timeout&#x27;: 5, &#x27;ssl_ca_certificate&#x27;: None, &#x27;scheduler&#x27;: None, &#x27;profiler_filename&#x27;: None, &#x27;ssl_private_key&#x27;: &#x27;&#x27;, &#x27;scheduler_groups&#x27;: None, &#x27;password&#x27;: &#x27;Bobbyman1&#x27;, &#x27;request_queue_size&#x27;: 5, &#x27;ssl_certificate&#x27;: &#x27;&#x27;, &#x27;cronjob&#x27;: False, &#x27;numthreads&#x27;: None, &#x27;quiet&#x27;: False, &#x27;interfaces&#x27;: None, &#x27;import_models&#x27;: False, &#x27;timeout&#x27;: 10, &#x27;plain&#x27;: False, &#x27;nobanner&#x27;: False}&gt;</div></td></tr><tr><td style="font-weight:bold;vertical-align:top">db_sessions</td><td valign="top">:</td><td><div>set([])</div></td></tr><tr><td style="font-weight:bold;vertical-align:top">debugging</td><td valign="top">:</td><td><div>False</div></td></tr><tr><td style="font-weight:bold;vertical-align:top">gluon_parent</td><td valign="top">:</td><td><div>/Users/harold/dev/astro/wsgi/web2py</div></td></tr><tr><td style="font-weight:bold;vertical-align:top">is_jython</td><td valign="top">:</td><td><div>False</div></td></tr><tr><td style="font-weight:bold;vertical-align:top">is_pypy</td><td valign="top">:</td><td><div>False</div></td></tr><tr><td style="font-weight:bold;vertical-align:top">local_hosts</td><td valign="top">:</td><td><div><table><tr><td><div>Harold-Daniels-MacBook-Pro-5.local</div></td></tr><tr><td><div>::ffff:127.0.0.1</div></td></tr><tr><td><div>::1</div></td></tr><tr><td><div>fe80::223:32ff:fecb:4bba%en1</div></td></tr><tr><td><div>fe80::223:32ff:fecb:4bba%en0</div></td></tr><tr><td><div>192.168.2.103</div></td></tr><tr><td><div>fe80::223:6cff:fe7e:214c%en1</div></td></tr><tr><td><div>fe80::223:6cff:fe7e:214c%en0</div></td></tr><tr><td><div>192.168.2.125</div></td></tr><tr><td><div>127.0.0.1</div></td></tr></table></div></td></tr><tr><td style="font-weight:bold;vertical-align:top">web2py_version</td><td valign="top">:</td><td><div>2.5.1-stable+timestamp.2013.06.06.15.39.19</div></td></tr></table></div></td></tr><tr><td style="font-weight:bold;vertical-align:top">is_https</td><td valign="top">:</td><td><div>False</div></td></tr><tr><td style="font-weight:bold;vertical-align:top">is_local</td><td valign="top">:</td><td><div>True</div></td></tr><tr><td style="font-weight:bold;vertical-align:top">is_restful</td><td valign="top">:</td><td><div>False</div></td></tr><tr><td style="font-weight:bold;vertical-align:top">now</td><td valign="top">:</td><td><div>datetime.datetime(2013, 7, 23, 10, 10, 16, 212976)</div></td></tr><tr><td style="font-weight:bold;vertical-align:top">post_vars</td><td valign="top">:</td><td><div><table></table></div></td></tr><tr><td style="font-weight:bold;vertical-align:top">raw_args</td><td valign="top">:</td><td><div></div></td></tr><tr><td style="font-weight:bold;vertical-align:top">raw_extension</td><td valign="top">:</td><td><div>xml</div></td></tr><tr><td style="font-weight:bold;vertical-align:top">url</td><td valign="top">:</td><td><div>/sr_astronomy/api/lookup.xml</div></td></tr><tr><td style="font-weight:bold;vertical-align:top">utcnow</td><td valign="top">:</td><td><div>datetime.datetime(2013, 7, 23, 15, 10, 16, 212989)</div></td></tr><tr><td style="font-weight:bold;vertical-align:top">uuid</td><td valign="top">:</td><td><div>sr_astronomy/127.0.0.1.2013-07-23.10-10-16.0dd44892-efbd-437d-a3a5-0461ea6f35d5</div></td></tr><tr><td style="font-weight:bold;vertical-align:top">vars</td><td valign="top">:</td><td><div><table><tr><td style="font-weight:bold;vertical-align:top">dateTime</td><td valign="top">:</td><td><div>2000-03-05T12:00:00Z</div></td></tr><tr><td style="font-weight:bold;vertical-align:top">lat</td><td valign="top">:</td><td><div>27.955591</div></td></tr><tr><td style="font-weight:bold;vertical-align:top">lng</td><td valign="top">:</td><td><div>-82.24914551</div></td></tr></table></div></td></tr><tr><td style="font-weight:bold;vertical-align:top">wsgi</td><td valign="top">:</td><td><div><table><tr><td style="font-weight:bold;vertical-align:top">environ</td><td valign="top">:</td><td><div><table><tr><td style="font-weight:bold;vertical-align:top">HTTP_ACCEPT</td><td valign="top">:</td><td><div>text/html,application/xhtml+xml,application/xml;q=0.9,*/*;q=0.8</div></td></tr><tr><td style="font-weight:bold;vertical-align:top">HTTP_ACCEPT_ENCODING</td><td valign="top">:</td><td><div>gzip, deflate</div></td></tr><tr><td style="font-weight:bold;vertical-align:top">HTTP_ACCEPT_LANGUAGE</td><td valign="top">:</td><td><div>en-US,en;q=0.5</div></td></tr><tr><td style="font-weight:bold;vertical-align:top">HTTP_CACHE_CONTROL</td><td valign="top">:</td><td><div>max-age=0</div></td></tr><tr><td style="font-weight:bold;vertical-align:top">HTTP_CONNECTION</td><td valign="top">:</td><td><div>keep-alive</div></td></tr><tr><td style="font-weight:bold;vertical-align:top">HTTP_COOKIE</td><td valign="top">:</td><td><div>__utma=111872281.31957317.1366297790.1366893408.1366895981.5; __utmz=111872281.1366297790.1.1.utmcsr=(direct)|utmccn=(direct)|utmcmd=(none); __gads=ID=f9b7a3017e81eac7:T=1367859534:S=ALNI_MbwwFG9QNk-CCYBlBqIcBP-rbpUpg; __utmc=111872281; _tecfiler-rails_session=BAh7CEkiD3Nlc3Npb25faWQGOgZFRkkiJWY5YTg1ZmZlNjIzOTIwNzJmMmRkYTNmZjQ2ZDg0MTk0BjsAVEkiEF9jc3JmX3Rva2VuBjsARkkiMTJmSEl2TDdrN3N5S210UjFHbC9YRFJ2d05obFZjNU5hOHJIN0JpMW5kVkU9BjsARkkiGXdhcmRlbi51c2VyLnVzZXIua2V5BjsAVFsISSIJVXNlcgY7AEZbBmkGSSIiJDJhJDEwJGtrU3hWSTNKQnFiR2VOemM2S3FUemUGOwBU--9dc66921734c2f129d8ce0b75265ca5b217babb2; _session_id=fc5ed8cf41fb92cafa1b66ca40fed0e3; _tecfiler-ar_session=BAh7CEkiD3Nlc3Npb25faWQGOgZFRkkiJTVlZDNmODE5YTI5YWNkNDhiODM3YTNhZGQ0ODg3Mzk0BjsAVEkiEF9jc3JmX3Rva2VuBjsARkkiMTRtOHREMmswY1ZSTnZwOHRjOFpBR25vNjREYW1IV1ZkSkE3dHBRaXlLeGc9BjsARkkiGXdhcmRlbi51c2VyLnVzZXIua2V5BjsAVFsHWwZpBkkiIiQyYSQxMCQwdlVmS1NPLnhpZjNlM0NJNnFHUTF1BjsAVA%3D%3D--2be47e04964f5793884d30ce16a8be3c73de2ac7; session_id_welcome=127.0.0.1-03c9339a-d806-4620-b0de-40c59c12142f; session_data_examples=&quot;067737a87fff3d0a96269c51174607d7:zWFMmNXgDjuH3FUWpiYVPlXNsg7M4kys7vSaKG5tSxQ1__prhJrJjZzoocbG58Zbfc6BzsW5NoA1oqx1w6ErrA3oEcJlaNcdPREt59v3BaMpXId2LXtoH5H_UQyYMQAA6CUHLbCHLgq7ZAzzeWtGVA3r5ME6-esOUwXid6uU7FTKjMCA3_gMrbk4bu5Ofw5jUO9WrJQX43WZXG1k5rZMwc9kivPXxkPfZNBFS93Hl-N5hkh6cTcLvtcncz-AZag-T0X1nEBAXA0okeBjfVPT4ssq80RMCoDqDLv7R_T67o8KL40Dj9Bhg5Gyo_pKd8CedNKlXxq4EbctR6to5-aOdm9m-dpKbNAUAD7iRulD8q7vMCt34sFN5rIIYwVoEGdLc0yitqPvUJuW2eQ_nzAcJA==&quot;; session_id_admin=127.0.0.1-15417150-6826-4858-b60f-dd9de31eb352; session_id_myfirstapp=127.0.0.1-736f06b5-225a-4998-96cc-e78480634843; session_id_sr_astronomy=127.0.0.1-213304f1-5b51-4275-a788-db5c1234d192</div></td></tr><tr><td style="font-weight:bold;vertical-align:top">HTTP_HOST</td><td valign="top">:</td><td><div>localhost:8000</div></td></tr><tr><td style="font-weight:bold;vertical-align:top">HTTP_USER_AGENT</td><td valign="top">:</td><td><div>Mozilla/5.0 (Macintosh; Intel Mac OS X 10.8; rv:21.0) Gecko/20100101 Firefox/21.0</div></td></tr><tr><td style="font-weight:bold;vertical-align:top">PATH_INFO</td><td valign="top">:</td><td><div>/sr_astronomy/api/lookup.xml</div></td></tr><tr><td style="font-weight:bold;vertical-align:top">QUERY_STRING</td><td valign="top">:</td><td><div>lat=27.955591&amp;lng=-82.24914551&amp;dateTime=2000-03-05T12:00:00Z</div></td></tr><tr><td style="font-weight:bold;vertical-align:top">REMOTE_ADDR</td><td valign="top">:</td><td><div>127.0.0.1</div></td></tr><tr><td style="font-weight:bold;vertical-align:top">REMOTE_PORT</td><td valign="top">:</td><td><div>57877</div></td></tr><tr><td style="font-weight:bold;vertical-align:top">REQUEST_METHOD</td><td valign="top">:</td><td><div>GET</div></td></tr><tr><td style="font-weight:bold;vertical-align:top">REQUEST_URI</td><td valign="top">:</td><td><div>/sr_astronomy/api/lookup.xml?lat=27.955591&amp;lng=-82.24914551&amp;dateTime=2000-03-05T12:00:00Z</div></td></tr><tr><td style="font-weight:bold;vertical-align:top">SCRIPT_NAME</td><td valign="top">:</td><td><div></div></td></tr><tr><td style="font-weight:bold;vertical-align:top">SERVER_NAME</td><td valign="top">:</td><td><div>Harold-Daniels-MacBook-Pro-5.local</div></td></tr><tr><td style="font-weight:bold;vertical-align:top">SERVER_PORT</td><td valign="top">:</td><td><div>8000</div></td></tr><tr><td style="font-weight:bold;vertical-align:top">SERVER_PROTOCOL</td><td valign="top">:</td><td><div>HTTP/1.1</div></td></tr><tr><td style="font-weight:bold;vertical-align:top">SERVER_SOFTWARE</td><td valign="top">:</td><td><div>Rocket 1.2.6</div></td></tr><tr><td style="font-weight:bold;vertical-align:top">wsgi.errors</td><td valign="top">:</td><td><div>&lt;open file &#x27;&lt;stderr&gt;&#x27;, mode &#x27;w&#x27; at 0x108a4f270&gt;</div></td></tr><tr><td style="font-weight:bold;vertical-align:top">wsgi.file_wrapper</td><td valign="top">:</td><td><div>&lt;class wsgiref.util.FileWrapper at 0x109318ae0&gt;</div></td></tr><tr><td style="font-weight:bold;vertical-align:top">wsgi.input</td><td valign="top">:</td><td><div>&lt;cStringIO.StringO object at 0x10947f880&gt;</div></td></tr><tr><td style="font-weight:bold;vertical-align:top">wsgi.multiprocess</td><td valign="top">:</td><td><div>False</div></td></tr><tr><td style="font-weight:bold;vertical-align:top">wsgi.multithread</td><td valign="top">:</td><td><div>True</div></td></tr><tr><td style="font-weight:bold;vertical-align:top">wsgi.run_once</td><td valign="top">:</td><td><div>False</div></td></tr><tr><td style="font-weight:bold;vertical-align:top">wsgi.url_scheme</td><td valign="top">:</td><td><div>http</div></td></tr><tr><td style="font-weight:bold;vertical-align:top">wsgi.version</td><td valign="top">:</td><td><div>1</div></td></tr></table></div></td></tr></table></div></td></tr></table></div>'
tRp58
sS'frames'
p59
(lp60
(dp61
S'file'
p62
S'/Users/harold/dev/astro/wsgi/web2py/gluon/restricted.py'
p63
sS'dump'
p64
(dp65
S'environment'
p66
S"{'A': <class 'gluon.html.A'>, 'ANY_OF': <class 'gluon.validators.ANY_OF'>, 'Astro': <class 'applications.sr_astronomy.modules.astro.Astro'>, 'Auth': <class 'gluon.tools.Auth'>, 'B': <class 'gluon.html.B'>, 'BEAUTIFY': <class 'gluon.html.BEAUTIFY'>, 'BODY': <class 'gluon.html.BODY'>, 'BR': <class 'gluon.html.BR'>, 'BUTTON': <class 'gluon.html.BUTTON'>, 'CAT': <class 'gluon.html.CAT'>, ...}"
p67
sS'ccode'
p68
S'<code object <module> at 0x10982b7b0, file "/Use...cations/sr_astronomy/controllers/api.py", line 1>'
p69
ssS'lnum'
p70
I212
sS'lines'
p71
(dp72
I207
S'    try:'
p73
sI208
S'        if isinstance(code, types.CodeType):'
p74
sI209
S'            ccode = code'
p75
sI210
S'        else:'
p76
sI211
S'            ccode = compile2(code, layer)'
p77
sI212
S'        exec ccode in environment'
p78
sI213
S'    except HTTP:'
p79
sI214
S'        raise'
p80
sI215
S'    except RestrictedError:'
p81
sI216
S'        # do not encapsulate (obfuscate) the original RestrictedError'
p82
ssS'call'
p83
S'(code=\'import ephem\\nimport dateutil.parser\\nfrom datetim...rs.")\\n\\n\\n\\nresponse._vars=response._caller(lookup)\\n\', environment={\'A\': <class \'gluon.html.A\'>, \'ANY_OF\': <class \'gluon.validators.ANY_OF\'>, \'Astro\': <class \'applications.sr_astronomy.modules.astro.Astro\'>, \'Auth\': <class \'gluon.tools.Auth\'>, \'B\': <class \'gluon.html.B\'>, \'BEAUTIFY\': <class \'gluon.html.BEAUTIFY\'>, \'BODY\': <class \'gluon.html.BODY\'>, \'BR\': <class \'gluon.html.BR\'>, \'BUTTON\': <class \'gluon.html.BUTTON\'>, \'CAT\': <class \'gluon.html.CAT\'>, ...}, layer=\'/Users/harold/dev/astro/wsgi/web2py/applications/sr_astronomy/controllers/api.py\')'
p84
sS'func'
p85
S'restricted'
p86
sa(dp87
g62
S'/Users/harold/dev/astro/wsgi/web2py/applications/sr_astronomy/controllers/api.py'
p88
sg64
(dp89
sg70
I50
sg71
(dp90
I39
S'                previous_moon_transit=astro.observations["previous_moon_transit"],'
p91
sI40
S'                next_moon_transit=astro.observations["next_moon_transit"],'
p92
sI41
S'                moon_altitude=astro.observations["moon_altitude"],'
p93
sI42
S'                moon_azimuth=astro.observations["moon_azimuth"],'
p94
sI43
S'                moon_phase=astro.observations["moon_phase"],'
p95
sI44
S'                moon_magnitude=astro.observations["moon_magnitude"])'
p96
sI45
S'    else:'
p97
sI46
S'        return dict(message="error - missing required parameters.")'
p98
sI47
S''
sI48
S''
ssg83
S'()'
p99
sg85
S'<module>'
p100
sa(dp101
g62
S'/Users/harold/dev/astro/wsgi/web2py/gluon/globals.py'
p102
sg64
(dp103
S'self'
p104
S'undefined'
p105
sS'f'
S'<function lookup>'
p106
ssg70
I194
sg71
(dp107
I192
S"        self.delimiters = ('{{', '}}')"
p108
sI193
S'        self._vars = None'
p109
sI194
S'        self._caller = lambda f: f()'
p110
sI195
S'        self._view_environment = None'
p111
sI196
S'        self._custom_commit = None'
p112
sI197
S'        self._custom_rollback = None'
p113
sI198
S''
sI189
S'        self.menu = []             # used by the default view layout'
p114
sI190
S'        self.files = []            # used by web2py_ajax.html'
p115
sI191
S'        self.generic_patterns = []  # patterns to allow generic views'
p116
ssg83
S'(f=<function lookup>)'
p117
sg85
S'<lambda>'
p118
sa(dp119
g62
S'/Users/harold/dev/astro/wsgi/web2py/applications/sr_astronomy/controllers/api.py'
p120
sg64
(dp121
S'astro.observations'
p122
S"{'astronomical_next_rising': '2000-03-06T10:30:12', 'astronomical_next_setting': '2000-03-06T00:49:57', 'astronomical_previous_rising': '2000-03-05T10:31:15', 'astronomical_previous_setting': '2000-03-05T00:49:22', 'civil_next_rising': '2000-03-06T11:24:32', 'civil_next_setting': '2000-03-05T23:55:33', 'civil_previous_rising': '2000-03-05T11:25:35', 'civil_previous_setting': '2000-03-04T23:54:58', 'moon_altitude': '3:46:21.8', 'moon_azimuth': '105:55:49.3', ...}"
p123
sS'next_moonrise'
p124
g105
sS'OrderedDict'
p125
g105
sS'previous_moonset'
p126
g105
sS'astronomical_previous_setting'
p127
g105
sS'message'
p128
g105
sS'astronomical_previous_rising'
p129
g105
sS'previous_moon_transit'
p130
g105
sS'astronomical_next_rising'
p131
g105
sS'civil_previous_setting'
p132
g105
sS'civil_next_rising'
p133
g105
sS'next_moon_transit'
p134
g105
sS'moon_altitude'
p135
g105
sS'civil_next_setting'
p136
g105
sS'moon_azimuth'
p137
g105
sS'next_sunset'
p138
g105
sS'result_message'
p139
S"'ok'"
p140
sS'astronomical_next_setting'
p141
g105
sS'next_moonset'
p142
g105
sS'previous_sunset'
p143
g105
sS'astro'
p144
S'<applications.sr_astronomy.modules.astro.Astro object>'
p145
sS'moon_magnitude'
p146
g105
sS'moon_phase'
p147
g105
sS'previous_moonrise'
p148
g105
sS'next_sunrise'
p149
g105
sS'civil_previous_rising'
p150
g105
sS'previous_sunrise'
p151
g105
ssg70
I22
sg71
(dp152
I17
S'        except Exception, e:'
p153
sI18
S"            result_message = 'error: %s' % e"
p154
sI19
S'            return dict(message=result_message)'
p155
sI20
S'        else:'
p156
sI21
S"            result_message = 'ok'"
p157
sI22
S'            return OrderedDict(message=result_message,'
p158
sI23
S'                previous_sunrise=astro.observations["previous_sunrise"],'
p159
sI24
S'                next_sunrise=astro.observations["next_sunrise"],'
p160
sI25
S'                previous_sunset=astro.observations["previous_sunset"],'
p161
sI26
S'                next_sunset=astro.observations["next_sunset"],'
p162
ssg83
S'()'
p163
sg85
S'lookup'
p164
sasS'pyver'
p165
S'Python 2.7.2: /usr/bin/python (prefix: /System/Library/Frameworks/Python.framework/Versions/2.7)'
p166
sS'session'
p167
g57
(S's\x1a\x00\x00\x00<div><table></table></div>'
tRp168
sS'etype'
p169
S"<type 'exceptions.NameError'>"
p170
sS'date'
p171
S'Tue Jul 23 10:10:16 2013'
p172
sS'response'
p173
g57
(S's\xf6+\x00\x00<div><table><tr><td style="font-weight:bold;vertical-align:top">body</td><td valign="top">:</td><td><div>&lt;cStringIO.StringO object at 0x10947f500&gt;</div></td></tr><tr><td style="font-weight:bold;vertical-align:top">cookies</td><td valign="top">:</td><td><div><table><tr><td style="font-weight:bold;vertical-align:top">session_id_sr_astronomy</td><td valign="top">:</td><td><div>127.0.0.1-213304f1-5b51-4275-a788-db5c1234d192<table><tr><td style="font-weight:bold;vertical-align:top">comment</td><td valign="top">:</td><td><div></div></td></tr><tr><td style="font-weight:bold;vertical-align:top">domain</td><td valign="top">:</td><td><div></div></td></tr><tr><td style="font-weight:bold;vertical-align:top">expires</td><td valign="top">:</td><td><div></div></td></tr><tr><td style="font-weight:bold;vertical-align:top">httponly</td><td valign="top">:</td><td><div></div></td></tr><tr><td style="font-weight:bold;vertical-align:top">max-age</td><td valign="top">:</td><td><div></div></td></tr><tr><td style="font-weight:bold;vertical-align:top">path</td><td valign="top">:</td><td><div>/</div></td></tr><tr><td style="font-weight:bold;vertical-align:top">secure</td><td valign="top">:</td><td><div></div></td></tr><tr><td style="font-weight:bold;vertical-align:top">version</td><td valign="top">:</td><td><div></div></td></tr></table></div></td></tr></table></div></td></tr><tr><td style="font-weight:bold;vertical-align:top">delimiters</td><td valign="top">:</td><td><div><table><tr><td><div>{{</div></td></tr><tr><td><div>}}</div></td></tr></table></div></td></tr><tr><td style="font-weight:bold;vertical-align:top">files</td><td valign="top">:</td><td><div><table></table></div></td></tr><tr><td style="font-weight:bold;vertical-align:top">flash</td><td valign="top">:</td><td><div></div></td></tr><tr><td style="font-weight:bold;vertical-align:top">generic_patterns</td><td valign="top">:</td><td><div><table><tr><td><div>*</div></td></tr></table></div></td></tr><tr><td style="font-weight:bold;vertical-align:top">google_analytics_id</td><td valign="top">:</td><td><div>None</div></td></tr><tr><td style="font-weight:bold;vertical-align:top">headers</td><td valign="top">:</td><td><div><table><tr><td style="font-weight:bold;vertical-align:top">X-Powered-By</td><td valign="top">:</td><td><div>web2py</div></td></tr></table></div></td></tr><tr><td style="font-weight:bold;vertical-align:top">logo</td><td valign="top">:</td><td><div><a class="brand" href="http://www.web2py.com/"><b>web<span>2</span>py</b>&trade;&nbsp;</a></div></td></tr><tr><td style="font-weight:bold;vertical-align:top">menu</td><td valign="top">:</td><td><div><table><tr><td><div><table><tr><td><div>Home</div></td></tr><tr><td><div>False</div></td></tr><tr><td><div>/sr_astronomy/default/index.xml</div></td></tr><tr><td><div><table></table></div></td></tr></table></div></td></tr><tr><td><div><table><tr><td><div><span class="highlighted">web2py</span></div></td></tr><tr><td><div>False</div></td></tr><tr><td><div>http://web2py.com</div></td></tr><tr><td><div><table><tr><td><div><table><tr><td><div>My Sites</div></td></tr><tr><td><div>False</div></td></tr><tr><td><div>/admin/default/site.xml</div></td></tr></table></div></td></tr><tr><td><div><table><tr><td><div>This App</div></td></tr><tr><td><div>False</div></td></tr><tr><td><div>/admin/default/design.xml/sr_astronomy</div></td></tr><tr><td><div>[(&lt;lazyT &#x27;Controller&#x27;&gt;, False, &#x27;/admin/default/edit.xml/sr_astronomy/controllers/api.py&#x27;), (&lt;lazyT &#x27;View&#x27;&gt;, False, &#x27;/admin/default/edit.xml/sr_astronomy/views/api/lookup.xml&#x27;), (&lt;lazyT &#x27;Layout&#x27;&gt;, False, &#x27;/admin/default/edit.xml/sr_astronomy/views/layout.html&#x27;), (&lt;lazyT &#x27;Stylesheet&#x27;&gt;, False, &#x27;/admin/default/edit.xml/sr_astronomy/static/css/web2py.css&#x27;), (&lt;lazyT &#x27;DB Model&#x27;&gt;, False, &#x27;/admin/default/edit.xml/sr_astronomy/models/db.py&#x27;), (&lt;lazyT &#x27;Menu Model&#x27;&gt;, False, &#x27;/admin/default/edit.xml/sr_astronomy/models/menu.py&#x27;), (&lt;lazyT &#x27;Database&#x27;&gt;, False, &#x27;/sr_astronomy/appadmin/index.xml&#x27;), (&lt;lazyT &#x27;Errors&#x27;&gt;, False, &#x27;/admin/default/errors.xml/sr_astronomy&#x27;), (&lt;lazyT &#x27;About&#x27;&gt;, False, &#x27;/admin/default/about.xml/sr_astronomy&#x27;)]</div></td></tr></table></div></td></tr><tr><td><div><table><tr><td><div>web2py.com</div></td></tr><tr><td><div>False</div></td></tr><tr><td><div>http://www.web2py.com</div></td></tr><tr><td><div>[(&lt;lazyT &#x27;Download&#x27;&gt;, False, &#x27;http://www.web2py.com/examples/default/download&#x27;), (&lt;lazyT &#x27;Support&#x27;&gt;, False, &#x27;http://www.web2py.com/examples/default/support&#x27;), (&lt;lazyT &#x27;Demo&#x27;&gt;, False, &#x27;http://web2py.com/demo_admin&#x27;), (&lt;lazyT &#x27;Quick Examples&#x27;&gt;, False, &#x27;http://web2py.com/examples/default/examples&#x27;), (&lt;lazyT &#x27;FAQ&#x27;&gt;, False, &#x27;http://web2py.com/AlterEgo&#x27;), (&lt;lazyT &#x27;Videos&#x27;&gt;, False, &#x27;http://www.web2py.com/examples/default/videos/&#x27;), (&lt;lazyT &#x27;Free Applications&#x27;&gt;, False, &#x27;http://web2py.com/appliances&#x27;), (&lt;lazyT &#x27;Plugins&#x27;&gt;, False, &#x27;http://web2py.com/plugins&#x27;), (&lt;lazyT &#x27;Layouts&#x27;&gt;, False, &#x27;http://web2py.com/layouts&#x27;), (&lt;lazyT &#x27;Recipes&#x27;&gt;, False, &#x27;http://web2pyslices.com/&#x27;), (&lt;lazyT &#x27;Semantic&#x27;&gt;, False, &#x27;http://web2py.com/semantic&#x27;)]</div></td></tr></table></div></td></tr><tr><td><div><table><tr><td><div>Documentation</div></td></tr><tr><td><div>False</div></td></tr><tr><td><div>http://www.web2py.com/book</div></td></tr><tr><td><div>[(&lt;lazyT &#x27;Preface&#x27;&gt;, False, &#x27;http://www.web2py.com/book/default/chapter/00&#x27;), (&lt;lazyT &#x27;Introduction&#x27;&gt;, False, &#x27;http://www.web2py.com/book/default/chapter/01&#x27;), (&lt;lazyT &#x27;Python&#x27;&gt;, False, &#x27;http://www.web2py.com/book/default/chapter/02&#x27;), (&lt;lazyT &#x27;Overview&#x27;&gt;, False, &#x27;http://www.web2py.com/book/default/chapter/03&#x27;), (&lt;lazyT &#x27;The Core&#x27;&gt;, False, &#x27;http://www.web2py.com/book/default/chapter/04&#x27;), (&lt;lazyT &#x27;The Views&#x27;&gt;, False, &#x27;http://www.web2py.com/book/default/chapter/05&#x27;), (&lt;lazyT &#x27;Database&#x27;&gt;, False, &#x27;http://www.web2py.com/book/default/chapter/06&#x27;), (&lt;lazyT &#x27;Forms and Validators&#x27;&gt;, False, &#x27;http://www.web2py.com/book/default/chapter/07&#x27;), (&lt;lazyT &#x27;Email and SMS&#x27;&gt;, False, &#x27;http://www.web2py.com/book/default/chapter/08&#x27;), (&lt;lazyT &#x27;Access Control&#x27;&gt;, False, &#x27;http://www.web2py.com/book/default/chapter/09&#x27;), (&lt;lazyT &#x27;Services&#x27;&gt;, False, &#x27;http://www.web2py.com/book/default/chapter/10&#x27;), (&lt;lazyT &#x27;Ajax Recipes&#x27;&gt;, False, &#x27;http://www.web2py.com/book/default/chapter/11&#x27;), (&lt;lazyT &#x27;Components and Plugins&#x27;&gt;, False, &#x27;http://www.web2py.com/book/default/chapter/12&#x27;), (&lt;lazyT &#x27;Deployment Recipes&#x27;&gt;, False, &#x27;http://www.web2py.com/book/default/chapter/13&#x27;), (&lt;lazyT &#x27;Other Recipes&#x27;&gt;, False, &#x27;http://www.web2py.com/book/default/chapter/14&#x27;), (&lt;lazyT &#x27;Buy this book&#x27;&gt;, False, &#x27;http://stores.lulu.com/web2py&#x27;)]</div></td></tr></table></div></td></tr><tr><td><div><table><tr><td><div>Community</div></td></tr><tr><td><div>False</div></td></tr><tr><td><div>None</div></td></tr><tr><td><div>[(&lt;lazyT &#x27;Groups&#x27;&gt;, False, &#x27;http://www.web2py.com/examples/default/usergroups&#x27;), (&lt;lazyT &#x27;Twitter&#x27;&gt;, False, &#x27;http://twitter.com/web2py&#x27;), (&lt;lazyT &#x27;Live Chat&#x27;&gt;, False, &#x27;http://webchat.freenode.net/?channels=web2py&#x27;)]</div></td></tr></table></div></td></tr><tr><td><div><table><tr><td><div>Plugins</div></td></tr><tr><td><div>False</div></td></tr><tr><td><div>None</div></td></tr><tr><td><div>[(&#x27;plugin_wiki&#x27;, False, &#x27;http://web2py.com/examples/default/download&#x27;), (&lt;lazyT &#x27;Other Plugins&#x27;&gt;, False, &#x27;http://web2py.com/plugins&#x27;), (&lt;lazyT &#x27;Layout Plugins&#x27;&gt;, False, &#x27;http://web2py.com/layouts&#x27;)]</div></td></tr></table></div></td></tr></table></div></td></tr></table></div></td></tr></table></div></td></tr><tr><td style="font-weight:bold;vertical-align:top">meta</td><td valign="top">:</td><td><div><table><tr><td style="font-weight:bold;vertical-align:top">author</td><td valign="top">:</td><td><div>Your Name &lt;you@example.com&gt;</div></td></tr><tr><td style="font-weight:bold;vertical-align:top">description</td><td valign="top">:</td><td><div>a cool new app</div></td></tr><tr><td style="font-weight:bold;vertical-align:top">generator</td><td valign="top">:</td><td><div>Web2py Web Framework</div></td></tr><tr><td style="font-weight:bold;vertical-align:top">keywords</td><td valign="top">:</td><td><div>web2py, python, framework</div></td></tr></table></div></td></tr><tr><td style="font-weight:bold;vertical-align:top">models_to_run</td><td valign="top">:</td><td><div><table><tr><td><div>^\\w+\\.py$</div></td></tr><tr><td><div>^api/\\w+\\.py$</div></td></tr><tr><td><div>^api/lookup/\\w+\\.py$</div></td></tr></table></div></td></tr><tr><td style="font-weight:bold;vertical-align:top">postprocessing</td><td valign="top">:</td><td><div><table></table></div></td></tr><tr><td style="font-weight:bold;vertical-align:top">session_cookie_expires</td><td valign="top">:</td><td><div>None</div></td></tr><tr><td style="font-weight:bold;vertical-align:top">session_data_name</td><td valign="top">:</td><td><div>session_data_sr_astronomy</div></td></tr><tr><td style="font-weight:bold;vertical-align:top">session_file</td><td valign="top">:</td><td><div>None</div></td></tr><tr><td style="font-weight:bold;vertical-align:top">session_filename</td><td valign="top">:</td><td><div>/Users/harold/dev/astro/wsgi/web2py/applications/sr_astronomy/sessions/127.0.0.1-213304f1-5b51-4275-a788-db5c1234d192</div></td></tr><tr><td style="font-weight:bold;vertical-align:top">session_id</td><td valign="top">:</td><td><div>127.0.0.1-213304f1-5b51-4275-a788-db5c1234d192</div></td></tr><tr><td style="font-weight:bold;vertical-align:top">session_id_name</td><td valign="top">:</td><td><div>session_id_sr_astronomy</div></td></tr><tr><td style="font-weight:bold;vertical-align:top">session_new</td><td valign="top">:</td><td><div>False</div></td></tr><tr><td style="font-weight:bold;vertical-align:top">session_storage_type</td><td valign="top">:</td><td><div>file</div></td></tr><tr><td style="font-weight:bold;vertical-align:top">status</td><td valign="top">:</td><td><div>200</div></td></tr><tr><td style="font-weight:bold;vertical-align:top">subtitle</td><td valign="top">:</td><td><div>customize me!</div></td></tr><tr><td style="font-weight:bold;vertical-align:top">title</td><td valign="top">:</td><td><div>Sr Astronomy</div></td></tr><tr><td style="font-weight:bold;vertical-align:top">view</td><td valign="top">:</td><td><div>api/lookup.xml</div></td></tr></table></div>'
tRp174
sS'locals'
p175
(dp176
S'astro'
p177
S'<applications.sr_astronomy.modules.astro.Astro object>'
p178
sS'result_message'
p179
S"'ok'"
p180
sssS'traceback'
p181
S'Traceback (most recent call last):\n  File "/Users/harold/dev/astro/wsgi/web2py/gluon/restricted.py", line 212, in restricted\n    exec ccode in environment\n  File "/Users/harold/dev/astro/wsgi/web2py/applications/sr_astronomy/controllers/api.py", line 50, in <module>\n  File "/Users/harold/dev/astro/wsgi/web2py/gluon/globals.py", line 194, in <lambda>\n    self._caller = lambda f: f()\n  File "/Users/harold/dev/astro/wsgi/web2py/applications/sr_astronomy/controllers/api.py", line 22, in lookup\n    return OrderedDict(message=result_message,\nNameError: global name \'OrderedDict\' is not defined\n'
p182
s.